; Function Attrs: mustprogress uwtable
define hidden noundef zeroext i1 @_ZN7datalog33try_remove_cycle_from_permutationER7svectorIjjES2_(ptr nocapture noundef nonnull readonly align 8 dereferenceable(8) %permutation, ptr noundef nonnull align 8 dereferenceable(8) %cycle) local_unnamed_addr #3 {
entry:
  %0 = load ptr, ptr %permutation, align 8
  %cmp.i = icmp eq ptr %0, null
  br i1 %cmp.i, label %return, label %_ZNK6vectorIjLb0EjE4sizeEv.exit

_ZNK6vectorIjLb0EjE4sizeEv.exit:                  ; preds = %entry
  %arrayidx.i = getelementptr inbounds i8, ptr %0, i64 -4
  %1 = load i32, ptr %arrayidx.i, align 4
  %cmp24.not = icmp eq i32 %1, 0
  br i1 %cmp24.not, label %return, label %for.body.preheader

for.body.preheader:                               ; preds = %_ZNK6vectorIjLb0EjE4sizeEv.exit
  %2 = zext i32 %1 to i64
  %3 = load i32, ptr %0, align 4
  %cmp238 = icmp eq i32 %3, 0
  br i1 %cmp238, label %for.inc, label %for.cond3.preheader

for.body:                                         ; preds = %for.inc
  %arrayidx.i10 = getelementptr inbounds i32, ptr %0, i64 %indvars.iv.next
  %4 = load i32, ptr %arrayidx.i10, align 4
  %5 = zext i32 %4 to i64
  %cmp2 = icmp eq i64 %indvars.iv.next, %5
  br i1 %cmp2, label %for.inc, label %for.body.for.cond3.preheader_crit_edge, !llvm.loop !35

for.body.for.cond3.preheader_crit_edge:           ; preds = %for.body
  %cmp.le = icmp ult i64 %indvars.iv.next, %2
  %6 = trunc i64 %indvars.iv.next to i32
  br label %for.cond3.preheader

for.cond3.preheader:                              ; preds = %for.body.for.cond3.preheader_crit_edge, %for.body.preheader
  %indvars.iv.lcssa = phi i32 [ %6, %for.body.for.cond3.preheader_crit_edge ], [ 0, %for.body.preheader ]
  %cmp26.lcssa = phi i1 [ %cmp.le, %for.body.for.cond3.preheader_crit_edge ], [ true, %for.body.preheader ]
  br label %for.cond3

for.cond3:                                        ; preds = %for.cond3.preheader, %_ZN6vectorIjLb0EjE9push_backERKj.exit
  %storemerge = phi i32 [ %15, %_ZN6vectorIjLb0EjE9push_backERKj.exit ], [ %indvars.iv.lcssa, %for.cond3.preheader ]
  %7 = load ptr, ptr %cycle, align 8
  %cmp.i11 = icmp eq ptr %7, null
  br i1 %cmp.i11, label %if.then.i, label %lor.lhs.false.i

lor.lhs.false.i:                                  ; preds = %for.cond3
  %arrayidx.i12 = getelementptr inbounds i8, ptr %7, i64 -4
  %8 = load i32, ptr %arrayidx.i12, align 4
  %arrayidx4.i = getelementptr inbounds i8, ptr %7, i64 -8
  %9 = load i32, ptr %arrayidx4.i, align 4
  %cmp5.i = icmp eq i32 %8, %9
  br i1 %cmp5.i, label %if.then.i, label %_ZN6vectorIjLb0EjE9push_backERKj.exit

if.then.i:                                        ; preds = %lor.lhs.false.i, %for.cond3
  tail call void @_ZN6vectorIjLb0EjE13expand_vectorEv(ptr noundef nonnull align 8 dereferenceable(8) %cycle)
  %.pre.i = load ptr, ptr %cycle, align 8
  %arrayidx8.phi.trans.insert.i = getelementptr inbounds i8, ptr %.pre.i, i64 -4
  %.pre1.i = load i32, ptr %arrayidx8.phi.trans.insert.i, align 4
  br label %_ZN6vectorIjLb0EjE9push_backERKj.exit

_ZN6vectorIjLb0EjE9push_backERKj.exit:            ; preds = %lor.lhs.false.i, %if.then.i
  %10 = phi i32 [ %.pre1.i, %if.then.i ], [ %8, %lor.lhs.false.i ]
  %11 = phi ptr [ %.pre.i, %if.then.i ], [ %7, %lor.lhs.false.i ]
  %idx.ext.i = zext i32 %10 to i64
  %add.ptr.i = getelementptr inbounds i32, ptr %11, i64 %idx.ext.i
  store i32 %storemerge, ptr %add.ptr.i, align 4
  %12 = load ptr, ptr %cycle, align 8
  %arrayidx10.i = getelementptr inbounds i8, ptr %12, i64 -4
  %13 = load i32, ptr %arrayidx10.i, align 4
  %inc.i = add i32 %13, 1
  store i32 %inc.i, ptr %arrayidx10.i, align 4
  %14 = load ptr, ptr %permutation, align 8
  %idxprom.i14 = zext i32 %storemerge to i64
  %arrayidx.i15 = getelementptr inbounds i32, ptr %14, i64 %idxprom.i14
  %15 = load i32, ptr %arrayidx.i15, align 4
  store i32 %storemerge, ptr %arrayidx.i15, align 4
  %cmp7 = icmp eq i32 %15, %indvars.iv.lcssa
  br i1 %cmp7, label %return, label %for.cond3, !llvm.loop !34

for.inc:                                          ; preds = %for.body.preheader, %for.body
  %indvars.iv39 = phi i64 [ %indvars.iv.next, %for.body ], [ 0, %for.body.preheader ]
  %indvars.iv.next = add nuw nsw i64 %indvars.iv39, 1
  %exitcond.not = icmp eq i64 %indvars.iv.next, %2
  br i1 %exitcond.not, label %return, label %for.body, !llvm.loop !35

return:                                           ; preds = %for.inc, %_ZN6vectorIjLb0EjE9push_backERKj.exit, %entry, %_ZNK6vectorIjLb0EjE4sizeEv.exit
  %cmp22 = phi i1 [ false, %_ZNK6vectorIjLb0EjE4sizeEv.exit ], [ false, %entry ], [ %cmp26.lcssa, %_ZN6vectorIjLb0EjE9push_backERKj.exit ], [ false, %for.inc ]
  ret i1 %cmp22
}